target datalayout = "e-m:e-p270:32:32-p271:32:32-p272:64:64-i64:64-i128:128-f80:128-n8:16:32:64-S128"
target triple = "x86_64-unknown-linux-gnu"

%"class.icu_75::LocaleMatcher::Builder" = type { i32, ptr, i32, i32, ptr, i8, i32, i32, ptr, ptr }

; Function Attrs: mustprogress nounwind uwtable
define internal noundef signext i8 @_ZL9U_FAILURE10UErrorCode(i32 noundef %code) #0 {
entry:
  %code.addr = alloca i32, align 4
  store i32 %code, ptr %code.addr, align 4
  %0 = load i32, ptr %code.addr, align 4
  %cmp = icmp sgt i32 %0, 0
  %conv = zext i1 %cmp to i8
  ret i8 %conv
}

; Function Attrs: mustprogress uwtable
define noundef nonnull align 8 dereferenceable(64) ptr @_ZN6icu_7513LocaleMatcher7Builder14setMaxDistanceERKNS_6LocaleES4_(ptr noundef nonnull align 8 dereferenceable(64) %this, ptr noundef nonnull align 8 dereferenceable(217) %desired, ptr noundef nonnull align 8 dereferenceable(217) %supported) #1 align 2 {
entry:
  %retval = alloca ptr, align 8
  %this.addr = alloca ptr, align 8
  %desired.addr = alloca ptr, align 8
  %supported.addr = alloca ptr, align 8
  %desiredClone = alloca ptr, align 8
  %supportedClone = alloca ptr, align 8
  store ptr %this, ptr %this.addr, align 8
  store ptr %desired, ptr %desired.addr, align 8
  store ptr %supported, ptr %supported.addr, align 8
  %this1 = load ptr, ptr %this.addr, align 8
  %errorCode_ = getelementptr inbounds %"class.icu_75::LocaleMatcher::Builder", ptr %this1, i32 0, i32 0
  %0 = load i32, ptr %errorCode_, align 8
  %call = call noundef signext i8 @_ZL9U_FAILURE10UErrorCode(i32 noundef %0)
  %tobool = icmp ne i8 %call, 0
  br i1 %tobool, label %if.then, label %if.end

if.then:                                          ; preds = %entry
  store ptr %this1, ptr %retval, align 8
  br label %return

if.end:                                           ; preds = %entry
  %1 = load ptr, ptr %desired.addr, align 8
  %call2 = call noundef ptr @_ZNK6icu_756Locale5cloneEv(ptr noundef nonnull align 8 dereferenceable(217) %1)
  store ptr %call2, ptr %desiredClone, align 8
  %2 = load ptr, ptr %supported.addr, align 8
  %call3 = call noundef ptr @_ZNK6icu_756Locale5cloneEv(ptr noundef nonnull align 8 dereferenceable(217) %2)
  store ptr %call3, ptr %supportedClone, align 8
  %3 = load ptr, ptr %desiredClone, align 8
  %cmp = icmp eq ptr %3, null
  br i1 %cmp, label %if.then5, label %lor.lhs.false

lor.lhs.false:                                    ; preds = %if.end
  %4 = load ptr, ptr %supportedClone, align 8
  %cmp4 = icmp eq ptr %4, null
  br i1 %cmp4, label %if.then5, label %if.end12

if.then5:                                         ; preds = %lor.lhs.false, %if.end
  %5 = load ptr, ptr %desiredClone, align 8
  %isnull = icmp eq ptr %5, null
  br i1 %isnull, label %delete.end, label %delete.notnull

delete.notnull:                                   ; preds = %if.then5
  %vtable = load ptr, ptr %5, align 8
  %vfn = getelementptr inbounds ptr, ptr %vtable, i64 1
  %6 = load ptr, ptr %vfn, align 8
  call void %6(ptr noundef nonnull align 8 dereferenceable(217) %5) #11
  br label %delete.end

delete.end:                                       ; preds = %delete.notnull, %if.then5
  %7 = load ptr, ptr %supportedClone, align 8
  %isnull6 = icmp eq ptr %7, null
  br i1 %isnull6, label %delete.end10, label %delete.notnull7

delete.notnull7:                                  ; preds = %delete.end
  %vtable8 = load ptr, ptr %7, align 8
  %vfn9 = getelementptr inbounds ptr, ptr %vtable8, i64 1
  %8 = load ptr, ptr %vfn9, align 8
  call void %8(ptr noundef nonnull align 8 dereferenceable(217) %7) #11
  br label %delete.end10

delete.end10:                                     ; preds = %delete.notnull7, %delete.end
  %errorCode_11 = getelementptr inbounds %"class.icu_75::LocaleMatcher::Builder", ptr %this1, i32 0, i32 0
  store i32 7, ptr %errorCode_11, align 8
  store ptr %this1, ptr %retval, align 8
  br label %return

if.end12:                                         ; preds = %lor.lhs.false
  %maxDistanceDesired_ = getelementptr inbounds %"class.icu_75::LocaleMatcher::Builder", ptr %this1, i32 0, i32 8
  %9 = load ptr, ptr %maxDistanceDesired_, align 8
  %isnull13 = icmp eq ptr %9, null
  br i1 %isnull13, label %delete.end17, label %delete.notnull14

delete.notnull14:                                 ; preds = %if.end12
  %vtable15 = load ptr, ptr %9, align 8
  %vfn16 = getelementptr inbounds ptr, ptr %vtable15, i64 1
  %10 = load ptr, ptr %vfn16, align 8
  call void %10(ptr noundef nonnull align 8 dereferenceable(217) %9) #11
  br label %delete.end17

delete.end17:                                     ; preds = %delete.notnull14, %if.end12
  %maxDistanceSupported_ = getelementptr inbounds %"class.icu_75::LocaleMatcher::Builder", ptr %this1, i32 0, i32 9
  %11 = load ptr, ptr %maxDistanceSupported_, align 8
  %isnull18 = icmp eq ptr %11, null
  br i1 %isnull18, label %delete.end22, label %delete.notnull19

delete.notnull19:                                 ; preds = %delete.end17
  %vtable20 = load ptr, ptr %11, align 8
  %vfn21 = getelementptr inbounds ptr, ptr %vtable20, i64 1
  %12 = load ptr, ptr %vfn21, align 8
  call void %12(ptr noundef nonnull align 8 dereferenceable(217) %11) #11
  br label %delete.end22

delete.end22:                                     ; preds = %delete.notnull19, %delete.end17
  %13 = load ptr, ptr %desiredClone, align 8
  %maxDistanceDesired_23 = getelementptr inbounds %"class.icu_75::LocaleMatcher::Builder", ptr %this1, i32 0, i32 8
  store ptr %13, ptr %maxDistanceDesired_23, align 8
  %14 = load ptr, ptr %supportedClone, align 8
  %maxDistanceSupported_24 = getelementptr inbounds %"class.icu_75::LocaleMatcher::Builder", ptr %this1, i32 0, i32 9
  store ptr %14, ptr %maxDistanceSupported_24, align 8
  store ptr %this1, ptr %retval, align 8
  br label %return

return:                                           ; preds = %delete.end22, %delete.end10, %if.then
  %15 = load ptr, ptr %retval, align 8
  ret ptr %15
}