; Function Attrs: mustprogress uwtable
define noundef nonnull align 8 dereferenceable(64) ptr @_ZN6icu_7513LocaleMatcher7Builder14setMaxDistanceERKNS_6LocaleES4_(ptr noundef nonnull returned align 8 dereferenceable(64) %this, ptr noundef nonnull align 8 dereferenceable(217) %desired, ptr noundef nonnull align 8 dereferenceable(217) %supported) local_unnamed_addr #2 align 2 {
entry:
  %0 = load i32, ptr %this, align 8
  %cmp.i = icmp slt i32 %0, 1
  br i1 %cmp.i, label %if.end, label %return

if.end:                                           ; preds = %entry
  %call2 = tail call noundef ptr @_ZNK6icu_756Locale5cloneEv(ptr noundef nonnull align 8 dereferenceable(217) %desired)
  %call3 = tail call noundef ptr @_ZNK6icu_756Locale5cloneEv(ptr noundef nonnull align 8 dereferenceable(217) %supported)
  %cmp = icmp eq ptr %call2, null
  %cmp4 = icmp eq ptr %call3, null
  %or.cond = or i1 %cmp, %cmp4
  br i1 %or.cond, label %if.then5, label %if.end12

if.then5:                                         ; preds = %if.end
  br i1 %cmp, label %delete.end, label %delete.notnull

delete.notnull:                                   ; preds = %if.then5
  %vtable = load ptr, ptr %call2, align 8
  %vfn = getelementptr inbounds i8, ptr %vtable, i64 8
  %1 = load ptr, ptr %vfn, align 8
  tail call void %1(ptr noundef nonnull align 8 dereferenceable(217) %call2) #15
  br label %delete.end

delete.end:                                       ; preds = %delete.notnull, %if.then5
  br i1 %cmp4, label %delete.end10, label %delete.notnull7

delete.notnull7:                                  ; preds = %delete.end
  %vtable8 = load ptr, ptr %call3, align 8
  %vfn9 = getelementptr inbounds i8, ptr %vtable8, i64 8
  %2 = load ptr, ptr %vfn9, align 8
  tail call void %2(ptr noundef nonnull align 8 dereferenceable(217) %call3) #15
  br label %delete.end10

delete.end10:                                     ; preds = %delete.notnull7, %delete.end
  store i32 7, ptr %this, align 8
  br label %return

if.end12:                                         ; preds = %if.end
  %maxDistanceDesired_ = getelementptr inbounds i8, ptr %this, i64 48
  %3 = load ptr, ptr %maxDistanceDesired_, align 8
  %isnull13 = icmp eq ptr %3, null
  br i1 %isnull13, label %delete.end17, label %delete.notnull14

delete.notnull14:                                 ; preds = %if.end12
  %vtable15 = load ptr, ptr %3, align 8
  %vfn16 = getelementptr inbounds i8, ptr %vtable15, i64 8
  %4 = load ptr, ptr %vfn16, align 8
  tail call void %4(ptr noundef nonnull align 8 dereferenceable(217) %3) #15
  br label %delete.end17

delete.end17:                                     ; preds = %delete.notnull14, %if.end12
  %maxDistanceSupported_ = getelementptr inbounds i8, ptr %this, i64 56
  %5 = load ptr, ptr %maxDistanceSupported_, align 8
  %isnull18 = icmp eq ptr %5, null
  br i1 %isnull18, label %delete.end22, label %delete.notnull19

delete.notnull19:                                 ; preds = %delete.end17
  %vtable20 = load ptr, ptr %5, align 8
  %vfn21 = getelementptr inbounds i8, ptr %vtable20, i64 8
  %6 = load ptr, ptr %vfn21, align 8
  tail call void %6(ptr noundef nonnull align 8 dereferenceable(217) %5) #15
  br label %delete.end22

delete.end22:                                     ; preds = %delete.notnull19, %delete.end17
  store ptr %call2, ptr %maxDistanceDesired_, align 8
  store ptr %call3, ptr %maxDistanceSupported_, align 8
  br label %return

return:                                           ; preds = %entry, %delete.end22, %delete.end10
  ret ptr %this
}